(lp0
(V                                                              \u2605714-318-8454 \u2605No Black Men!!!!*****Generous men only ******* \u2605 My number one goal is companionship... No drama, no BS, no games..... I am a classy girl and am very selective in the men I choose to see. This may be your lucky day!!!The pics are of me and are 100% accurate. Arent you getting sick of reading all these little ads??? Let me make this easier for you... Call me, and let's have a great time!!!\u2605\u2605\u2605***Generous Respectful Men Only" (714-318-8454 Christina...                  
p1
S'trafficking'
p2
tp3
a(V                                                              \u2605714-318-8454 \u2605No Black Men!!!!*****Generous men only ******* \u2605 My number one goal is companionship... No drama, no BS, no games..... I am a classy girl and am very selective in the men I choose to see. This may be your lucky day!!!The pics are of me and are 100% accurate. Arent you getting sick of reading all these little ads??? Let me make this easier for you... Call me, and let's have a great time!!!\u2605\u2605\u2605***Generous Respectful Men Only" (714-318-8454 Christina...                  
p4
S'trafficking'
p5
tp6
a(V                                                              \u2605714-318-8454 \u2605No Black Men!!!!*****Generous men only ******* \u2605 My number one goal is companionship... No drama, no BS, no games..... I am a classy girl and am very selective in the men I choose to see. This may be your lucky day!!!The pics are of me and are 100% accurate. Arent you getting sick of reading all these little ads??? Let me make this easier for you... Call me, and let's have a great time!!!\u2605\u2605\u2605***Generous Respectful Men Only" (714-318-8454 Christina...                  
p7
S'trafficking'
p8
tp9
a(S'                                                              Hey guys its Brazil here for all your needs 24/7 im a hard worker and I aim to please. 4/20 friendly and all my pics are real so call me now 6468585593 im waiting for u. All youll ever need call me you could never b disappointeAnywhere in the bronx in 30 mins or less15=5030=8060=100                  '
p10
S'trafficking'
p11
tp12
a(S'                                                              Hey guys its Brazil here for all your needs 24/7 im a hard worker and I aim to please. 4/20 friendly and all my pics are real so call me now 6468585593 im waiting for u. All youll ever need call me you could never b disappointeAnywhere in the bronx in 30 mins or less15=5030=8060=100                  '
p13
S'trafficking'
p14
tp15
a(S'                                                              You wanna have a good time with me?my place is clean,discrete so come overI will take good care of youOpen minded,fulfilling experienceIf you looking for a Young and Satisfying Girl,call meYes Real picture here.Pretty Young Russian Angel.open minded experiencelooking for mature gentleman please,call me 718- 853- 3853                  '
p16
S'trafficking'
p17
tp18
a(V                                                              hi boyswe have new arrival college girls \U0001f48bwaiting to give you what you want!doll face angel babe with slim sexy bodylong legs pretty feetvery sweet and friendly! \u2764\ufe0fplease call 718-704-8986to realize your fantasy Now!OutCall ONLY P.S SORRY NO BLACK GUYS PLS                  
p19
S'trafficking'
p20
tp21
a(V                                                              BRAND NEW HOTTEST SPA IN QUEENS PERIOD.\u2014\u2014\u2014\u2605\u2014\u2014\u2014\u2014\u2014SENSUAL KOREAN BODYSLIDE\u2014\u2014\u2014\u2014\u2014\u2605\u2014\u2014\u2014\u2588\u2588\u2588\u2588 \u2605" JUST COME AND TASTE KOREAN STYLE "\u2605 \u2588\u2588\u2588\u2588 \u2714 Highly Trained Korean Therapists \u2605\u2714 Get 110% of time paid for \u2605\u2714 Table Shower Of Heaven \u2605\u2714 YOUNG KOREAN GIRLS \u2605\u2714 MUTUAL TOUCH \u2605\u2714 Deep Tissue \u2605\u2714 Swedish & Shiatsu \u2605\u2714 TABLE SHOWER with EXTRA FUN EVERY CORNERS \u2605\u2714 LEAVE WITH BIG SMILE \u2605 \u2764 Open 7 days 10 AM - 4 AM (10 AM - 6AM WEEKEND) \u2764\u2764 6 Very private rooms \u2764 929\u25ac258\u25ac1112 \u2764                  
p22
S'trafficking'
p23
tp24
a(V                                                              hi boyswe have new arrival college girls \U0001f48bwaiting to give you what you want!doll face angel babe with slim sexy bodylong legs pretty feetvery sweet and friendly! \u2764\ufe0fplease call 718-704-8986to realize your fantasy Now!OutCall ONLY P.S SORRY NO BLACK GUYS PLEASE                  
p25
S'trafficking'
p26
tp27
a(S'                                                              Real Pictures!! Real GIRLS !! No Bait Or Switch !100/Qk 120/45mins .180/bust 2 times 45 minsshower together and nude massage =PCall for appointment no private calls.16466204341. Download Wechat APP on smartphone and ADD TVB696969 for more and Detail PICTURES!! NO TEXTS!! WECHAT ONLY!!  12:00 pm to 2am GENTLEMEN ONLY !! INCALL ONLY !!INDEPENDENT ASIAN GIRLS..INCALL ONLY !!                  '
p28
S'trafficking'
p29
tp30
a(S'                                                              Real Pictures!! Real GIRLS !! No Bait Or Switch !100/Qk 120/45mins .180/bust 2 times 45 minsshower together and nude massage =PCall for appointment no private calls.16466204341. Download Wechat APP on smartphone and ADD TVB696969 for more and Detail PICTURES!! NO TEXTS!! WECHAT ONLY!!  12:00 pm to 2am GENTLEMEN ONLY !! INCALL ONLY !!INDEPENDENT ASIAN GIRLS..INCALL ONLY !!                  '
p31
S'trafficking'
p32
tp33
a(g31
g32
tp34
a(g31
g32
tp35
a(g31
g32
tp36
a(g31
g32
tp37
a.